target datalayout = "e-m:e-p270:32:32-p271:32:32-p272:64:64-i64:64-i128:128-f80:128-n8:16:32:64-S128"
target triple = "x86_64-pc-linux-gnu"

%struct.object_id = type { [32 x i8], i32 }
%struct.pbase_tree = type { ptr, %struct.pbase_tree_cache }
%struct.pbase_tree_cache = type { %struct.object_id, i32, i32, ptr, i64 }
%struct.tree_desc = type { ptr, ptr, %struct.name_entry, i32, i32 }
%struct.name_entry = type { %struct.object_id, ptr, i32, i32 }

@num_preferred_base = internal global i32 0, align 4
@pbase_tree = internal global ptr null, align 8
@sane_ctype = external constant [256 x i8], align 16
@done_pbase_paths_num = internal global i32 0, align 4
@done_pbase_paths_alloc = internal global i32 0, align 4
@done_pbase_paths = internal global ptr null, align 8
@.str.148 = private unnamed_addr constant [27 x i8] c"size_t overflow: %lu * %lu\00", align 1
@.str.149 = private unnamed_addr constant [3 x i8] c"\0A/\00", align 1

; Function Attrs: inlinehint nounwind uwtable
define internal void @move_array(ptr noundef %0, ptr noundef %1, i64 noundef %2, i64 noundef %3) #2 {
  %5 = alloca ptr, align 8
  %6 = alloca ptr, align 8
  %7 = alloca i64, align 8
  %8 = alloca i64, align 8
  store ptr %0, ptr %5, align 8, !tbaa !134
  store ptr %1, ptr %6, align 8, !tbaa !134
  store i64 %2, ptr %7, align 8, !tbaa !13
  store i64 %3, ptr %8, align 8, !tbaa !13
  %9 = load i64, ptr %7, align 8, !tbaa !13
  %10 = icmp ne i64 %9, 0
  br i1 %10, label %11, label %17

11:                                               ; preds = %4
  %12 = load ptr, ptr %5, align 8, !tbaa !134
  %13 = load ptr, ptr %6, align 8, !tbaa !134
  %14 = load i64, ptr %8, align 8, !tbaa !13
  %15 = load i64, ptr %7, align 8, !tbaa !13
  %16 = call i64 @st_mult(i64 noundef %14, i64 noundef %15)
  call void @llvm.memmove.p0.p0.i64(ptr align 1 %12, ptr align 1 %13, i64 %16, i1 false)
  br label %17

17:                                               ; preds = %11, %4
  ret void
}

; Function Attrs: inlinehint nounwind uwtable
define internal i64 @st_mult(i64 noundef %0, i64 noundef %1) #2 {
  %3 = alloca i64, align 8
  %4 = alloca i64, align 8
  store i64 %0, ptr %3, align 8, !tbaa !13
  store i64 %1, ptr %4, align 8, !tbaa !13
  %5 = load i64, ptr %3, align 8, !tbaa !13
  %6 = icmp ne i64 %5, 0
  br i1 %6, label %7, label %15

7:                                                ; preds = %2
  %8 = load i64, ptr %4, align 8, !tbaa !13
  %9 = load i64, ptr %3, align 8, !tbaa !13
  %10 = udiv i64 -1, %9
  %11 = icmp ugt i64 %8, %10
  br i1 %11, label %12, label %15

12:                                               ; preds = %7
  %13 = load i64, ptr %3, align 8, !tbaa !13
  %14 = load i64, ptr %4, align 8, !tbaa !13
  call void (ptr, ...) @die(ptr noundef @.str.148, i64 noundef %13, i64 noundef %14) #12
  unreachable

15:                                               ; preds = %7, %2
  %16 = load i64, ptr %3, align 8, !tbaa !13
  %17 = load i64, ptr %4, align 8, !tbaa !13
  %18 = mul i64 %16, %17
  ret i64 %18
}

; Function Attrs: nounwind uwtable
define internal i32 @done_pbase_path_pos(i32 noundef %0) #0 {
  %2 = alloca i32, align 4
  %3 = alloca i32, align 4
  %4 = alloca i32, align 4
  %5 = alloca i32, align 4
  %6 = alloca i32, align 4
  %7 = alloca i32, align 4
  store i32 %0, ptr %3, align 4, !tbaa !27
  call void @llvm.lifetime.start.p0(i64 4, ptr %4) #11
  store i32 0, ptr %4, align 4, !tbaa !27
  call void @llvm.lifetime.start.p0(i64 4, ptr %5) #11
  %8 = load i32, ptr @done_pbase_paths_num, align 4, !tbaa !27
  store i32 %8, ptr %5, align 4, !tbaa !27
  br label %9

9:                                                ; preds = %45, %1
  %10 = load i32, ptr %4, align 4, !tbaa !27
  %11 = load i32, ptr %5, align 4, !tbaa !27
  %12 = icmp slt i32 %10, %11
  br i1 %12, label %13, label %46

13:                                               ; preds = %9
  call void @llvm.lifetime.start.p0(i64 4, ptr %6) #11
  %14 = load i32, ptr %4, align 4, !tbaa !27
  %15 = load i32, ptr %5, align 4, !tbaa !27
  %16 = load i32, ptr %4, align 4, !tbaa !27
  %17 = sub nsw i32 %15, %16
  %18 = sdiv i32 %17, 2
  %19 = add nsw i32 %14, %18
  store i32 %19, ptr %6, align 4, !tbaa !27
  %20 = load ptr, ptr @done_pbase_paths, align 8, !tbaa !129
  %21 = load i32, ptr %6, align 4, !tbaa !27
  %22 = sext i32 %21 to i64
  %23 = getelementptr inbounds i32, ptr %20, i64 %22
  %24 = load i32, ptr %23, align 4, !tbaa !27
  %25 = load i32, ptr %3, align 4, !tbaa !27
  %26 = icmp eq i32 %24, %25
  br i1 %26, label %27, label %29

27:                                               ; preds = %13
  %28 = load i32, ptr %6, align 4, !tbaa !27
  store i32 %28, ptr %2, align 4
  store i32 1, ptr %7, align 4
  br label %43

29:                                               ; preds = %13
  %30 = load ptr, ptr @done_pbase_paths, align 8, !tbaa !129
  %31 = load i32, ptr %6, align 4, !tbaa !27
  %32 = sext i32 %31 to i64
  %33 = getelementptr inbounds i32, ptr %30, i64 %32
  %34 = load i32, ptr %33, align 4, !tbaa !27
  %35 = load i32, ptr %3, align 4, !tbaa !27
  %36 = icmp ult i32 %34, %35
  br i1 %36, label %37, label %39

37:                                               ; preds = %29
  %38 = load i32, ptr %6, align 4, !tbaa !27
  store i32 %38, ptr %5, align 4, !tbaa !27
  br label %42

39:                                               ; preds = %29
  %40 = load i32, ptr %6, align 4, !tbaa !27
  %41 = add nsw i32 %40, 1
  store i32 %41, ptr %4, align 4, !tbaa !27
  br label %42

42:                                               ; preds = %39, %37
  store i32 0, ptr %7, align 4
  br label %43

43:                                               ; preds = %42, %27
  call void @llvm.lifetime.end.p0(i64 4, ptr %6) #11
  %44 = load i32, ptr %7, align 4
  switch i32 %44, label %50 [
    i32 0, label %45
  ]

45:                                               ; preds = %43
  br label %9, !llvm.loop !235

46:                                               ; preds = %9
  %47 = load i32, ptr %4, align 4, !tbaa !27
  %48 = sub nsw i32 0, %47
  %49 = sub nsw i32 %48, 1
  store i32 %49, ptr %2, align 4
  store i32 1, ptr %7, align 4
  br label %50

50:                                               ; preds = %46, %43
  call void @llvm.lifetime.end.p0(i64 4, ptr %5) #11
  call void @llvm.lifetime.end.p0(i64 4, ptr %4) #11
  %51 = load i32, ptr %2, align 4
  ret i32 %51
}

; Function Attrs: nounwind uwtable
define internal i64 @name_cmp_len(ptr noundef %0) #0 {
  %2 = alloca ptr, align 8
  store ptr %0, ptr %2, align 8, !tbaa !24
  %3 = load ptr, ptr %2, align 8, !tbaa !24
  %4 = call i64 @strcspn(ptr noundef %3, ptr noundef @.str.149) #13
  ret i64 %4
}

; Function Attrs: nounwind uwtable
define internal i32 @check_pbase_path(i32 noundef %0) #0 {
  %2 = alloca i32, align 4
  %3 = alloca i32, align 4
  %4 = alloca i32, align 4
  %5 = alloca i32, align 4
  store i32 %0, ptr %3, align 4, !tbaa !27
  call void @llvm.lifetime.start.p0(i64 4, ptr %4) #11
  %6 = load i32, ptr %3, align 4, !tbaa !27
  %7 = call i32 @done_pbase_path_pos(i32 noundef %6)
  store i32 %7, ptr %4, align 4, !tbaa !27
  %8 = load i32, ptr %4, align 4, !tbaa !27
  %9 = icmp sle i32 0, %8
  br i1 %9, label %10, label %11

10:                                               ; preds = %1
  store i32 1, ptr %2, align 4
  store i32 1, ptr %5, align 4
  br label %71

11:                                               ; preds = %1
  %12 = load i32, ptr %4, align 4, !tbaa !27
  %13 = sub nsw i32 0, %12
  %14 = sub nsw i32 %13, 1
  store i32 %14, ptr %4, align 4, !tbaa !27
  br label %15

15:                                               ; preds = %11
  %16 = load i32, ptr @done_pbase_paths_num, align 4, !tbaa !27
  %17 = add nsw i32 %16, 1
  %18 = load i32, ptr @done_pbase_paths_alloc, align 4, !tbaa !27
  %19 = icmp sgt i32 %17, %18
  br i1 %19, label %20, label %42

20:                                               ; preds = %15
  %21 = load i32, ptr @done_pbase_paths_alloc, align 4, !tbaa !27
  %22 = add nsw i32 %21, 16
  %23 = mul nsw i32 %22, 3
  %24 = sdiv i32 %23, 2
  %25 = load i32, ptr @done_pbase_paths_num, align 4, !tbaa !27
  %26 = add nsw i32 %25, 1
  %27 = icmp slt i32 %24, %26
  br i1 %27, label %28, label %31

28:                                               ; preds = %20
  %29 = load i32, ptr @done_pbase_paths_num, align 4, !tbaa !27
  %30 = add nsw i32 %29, 1
  store i32 %30, ptr @done_pbase_paths_alloc, align 4, !tbaa !27
  br label %36

31:                                               ; preds = %20
  %32 = load i32, ptr @done_pbase_paths_alloc, align 4, !tbaa !27
  %33 = add nsw i32 %32, 16
  %34 = mul nsw i32 %33, 3
  %35 = sdiv i32 %34, 2
  store i32 %35, ptr @done_pbase_paths_alloc, align 4, !tbaa !27
  br label %36

36:                                               ; preds = %31, %28
  %37 = load ptr, ptr @done_pbase_paths, align 8, !tbaa !129
  %38 = load i32, ptr @done_pbase_paths_alloc, align 4, !tbaa !27
  %39 = sext i32 %38 to i64
  %40 = call i64 @st_mult(i64 noundef 4, i64 noundef %39)
  %41 = call ptr @xrealloc(ptr noundef %37, i64 noundef %40)
  store ptr %41, ptr @done_pbase_paths, align 8, !tbaa !129
  br label %42

42:                                               ; preds = %36, %15
  br label %43

43:                                               ; preds = %42
  br label %44

44:                                               ; preds = %43
  %45 = load i32, ptr @done_pbase_paths_num, align 4, !tbaa !27
  %46 = add nsw i32 %45, 1
  store i32 %46, ptr @done_pbase_paths_num, align 4, !tbaa !27
  %47 = load i32, ptr %4, align 4, !tbaa !27
  %48 = load i32, ptr @done_pbase_paths_num, align 4, !tbaa !27
  %49 = icmp slt i32 %47, %48
  br i1 %49, label %50, label %65

50:                                               ; preds = %44
  %51 = load ptr, ptr @done_pbase_paths, align 8, !tbaa !129
  %52 = load i32, ptr %4, align 4, !tbaa !27
  %53 = sext i32 %52 to i64
  %54 = getelementptr inbounds i32, ptr %51, i64 %53
  %55 = getelementptr inbounds i32, ptr %54, i64 1
  %56 = load ptr, ptr @done_pbase_paths, align 8, !tbaa !129
  %57 = load i32, ptr %4, align 4, !tbaa !27
  %58 = sext i32 %57 to i64
  %59 = getelementptr inbounds i32, ptr %56, i64 %58
  %60 = load i32, ptr @done_pbase_paths_num, align 4, !tbaa !27
  %61 = load i32, ptr %4, align 4, !tbaa !27
  %62 = sub nsw i32 %60, %61
  %63 = sub nsw i32 %62, 1
  %64 = sext i32 %63 to i64
  call void @move_array(ptr noundef %55, ptr noundef %59, i64 noundef %64, i64 noundef 4)
  br label %65

65:                                               ; preds = %50, %44
  %66 = load i32, ptr %3, align 4, !tbaa !27
  %67 = load ptr, ptr @done_pbase_paths, align 8, !tbaa !129
  %68 = load i32, ptr %4, align 4, !tbaa !27
  %69 = sext i32 %68 to i64
  %70 = getelementptr inbounds i32, ptr %67, i64 %69
  store i32 %66, ptr %70, align 4, !tbaa !27
  store i32 0, ptr %2, align 4
  store i32 1, ptr %5, align 4
  br label %71

71:                                               ; preds = %65, %10
  call void @llvm.lifetime.end.p0(i64 4, ptr %4) #11
  %72 = load i32, ptr %2, align 4
  ret i32 %72
}

; Function Attrs: inlinehint nounwind uwtable
define internal i32 @pack_name_hash(ptr noundef %0) #2 {
  %2 = alloca i32, align 4
  %3 = alloca ptr, align 8
  %4 = alloca i32, align 4
  %5 = alloca i32, align 4
  %6 = alloca i32, align 4
  store ptr %0, ptr %3, align 8, !tbaa !24
  call void @llvm.lifetime.start.p0(i64 4, ptr %4) #11
  call void @llvm.lifetime.start.p0(i64 4, ptr %5) #11
  store i32 0, ptr %5, align 4, !tbaa !27
  %7 = load ptr, ptr %3, align 8, !tbaa !24
  %8 = icmp ne ptr %7, null
  br i1 %8, label %10, label %9

9:                                                ; preds = %1
  store i32 0, ptr %2, align 4
  store i32 1, ptr %6, align 4
  br label %35

10:                                               ; preds = %1
  br label %11

11:                                               ; preds = %27, %26, %10
  %12 = load ptr, ptr %3, align 8, !tbaa !24
  %13 = getelementptr inbounds nuw i8, ptr %12, i32 1
  store ptr %13, ptr %3, align 8, !tbaa !24
  %14 = load i8, ptr %12, align 1, !tbaa !26
  %15 = sext i8 %14 to i32
  store i32 %15, ptr %4, align 4, !tbaa !27
  %16 = icmp ne i32 %15, 0
  br i1 %16, label %17, label %33

17:                                               ; preds = %11
  %18 = load i32, ptr %4, align 4, !tbaa !27
  %19 = trunc i32 %18 to i8
  %20 = zext i8 %19 to i64
  %21 = getelementptr inbounds nuw [256 x i8], ptr @sane_ctype, i64 0, i64 %20
  %22 = load i8, ptr %21, align 1, !tbaa !26
  %23 = zext i8 %22 to i32
  %24 = and i32 %23, 1
  %25 = icmp ne i32 %24, 0
  br i1 %25, label %26, label %27

26:                                               ; preds = %17
  br label %11, !llvm.loop !227

27:                                               ; preds = %17
  %28 = load i32, ptr %5, align 4, !tbaa !27
  %29 = lshr i32 %28, 2
  %30 = load i32, ptr %4, align 4, !tbaa !27
  %31 = shl i32 %30, 24
  %32 = add i32 %29, %31
  store i32 %32, ptr %5, align 4, !tbaa !27
  br label %11, !llvm.loop !227

33:                                               ; preds = %11
  %34 = load i32, ptr %5, align 4, !tbaa !27
  store i32 %34, ptr %2, align 4
  store i32 1, ptr %6, align 4
  br label %35

35:                                               ; preds = %33, %9
  call void @llvm.lifetime.end.p0(i64 4, ptr %5) #11
  call void @llvm.lifetime.end.p0(i64 4, ptr %4) #11
  %36 = load i32, ptr %2, align 4
  ret i32 %36
}

; Function Attrs: nounwind uwtable
define internal void @add_preferred_base_object(ptr noundef %0) #0 {
  %2 = alloca ptr, align 8
  %3 = alloca ptr, align 8
  %4 = alloca i64, align 8
  %5 = alloca i32, align 4
  %6 = alloca i32, align 4
  %7 = alloca %struct.tree_desc, align 8
  store ptr %0, ptr %2, align 8, !tbaa !24
  call void @llvm.lifetime.start.p0(i64 8, ptr %3) #11
  call void @llvm.lifetime.start.p0(i64 8, ptr %4) #11
  call void @llvm.lifetime.start.p0(i64 4, ptr %5) #11
  %8 = load ptr, ptr %2, align 8, !tbaa !24
  %9 = call i32 @pack_name_hash(ptr noundef %8)
  store i32 %9, ptr %5, align 4, !tbaa !27
  %10 = load i32, ptr @num_preferred_base, align 4, !tbaa !27
  %11 = icmp ne i32 %10, 0
  br i1 %11, label %12, label %16

12:                                               ; preds = %1
  %13 = load i32, ptr %5, align 4, !tbaa !27
  %14 = call i32 @check_pbase_path(i32 noundef %13)
  %15 = icmp ne i32 %14, 0
  br i1 %15, label %16, label %17

16:                                               ; preds = %12, %1
  store i32 1, ptr %6, align 4
  br label %53

17:                                               ; preds = %12
  %18 = load ptr, ptr %2, align 8, !tbaa !24
  %19 = call i64 @name_cmp_len(ptr noundef %18)
  store i64 %19, ptr %4, align 8, !tbaa !13
  %20 = load ptr, ptr @pbase_tree, align 8, !tbaa !179
  store ptr %20, ptr %3, align 8, !tbaa !179
  br label %21

21:                                               ; preds = %48, %17
  %22 = load ptr, ptr %3, align 8, !tbaa !179
  %23 = icmp ne ptr %22, null
  br i1 %23, label %24, label %52

24:                                               ; preds = %21
  %25 = load i64, ptr %4, align 8, !tbaa !13
  %26 = icmp eq i64 %25, 0
  br i1 %26, label %27, label %32

27:                                               ; preds = %24
  %28 = load ptr, ptr %3, align 8, !tbaa !179
  %29 = getelementptr inbounds nuw %struct.pbase_tree, ptr %28, i32 0, i32 1
  %30 = getelementptr inbounds nuw %struct.pbase_tree_cache, ptr %29, i32 0, i32 0
  %31 = call i32 @add_object_entry(ptr noundef %30, i32 noundef 2, ptr noundef null, i32 noundef 1)
  br label %47

32:                                               ; preds = %24
  call void @llvm.lifetime.start.p0(i64 80, ptr %7) #11
  %33 = load ptr, ptr %3, align 8, !tbaa !179
  %34 = getelementptr inbounds nuw %struct.pbase_tree, ptr %33, i32 0, i32 1
  %35 = getelementptr inbounds nuw %struct.pbase_tree_cache, ptr %34, i32 0, i32 0
  %36 = load ptr, ptr %3, align 8, !tbaa !179
  %37 = getelementptr inbounds nuw %struct.pbase_tree, ptr %36, i32 0, i32 1
  %38 = getelementptr inbounds nuw %struct.pbase_tree_cache, ptr %37, i32 0, i32 3
  %39 = load ptr, ptr %38, align 8, !tbaa !184
  %40 = load ptr, ptr %3, align 8, !tbaa !179
  %41 = getelementptr inbounds nuw %struct.pbase_tree, ptr %40, i32 0, i32 1
  %42 = getelementptr inbounds nuw %struct.pbase_tree_cache, ptr %41, i32 0, i32 4
  %43 = load i64, ptr %42, align 8, !tbaa !223
  call void @init_tree_desc(ptr noundef %7, ptr noundef %35, ptr noundef %39, i64 noundef %43)
  %44 = load ptr, ptr %2, align 8, !tbaa !24
  %45 = load i64, ptr %4, align 8, !tbaa !13
  %46 = load ptr, ptr %2, align 8, !tbaa !24
  call void @add_pbase_object(ptr noundef %7, ptr noundef %44, i64 noundef %45, ptr noundef %46)
  call void @llvm.lifetime.end.p0(i64 80, ptr %7) #11
  br label %47

47:                                               ; preds = %32, %27
  br label %48

48:                                               ; preds = %47
  %49 = load ptr, ptr %3, align 8, !tbaa !179
  %50 = getelementptr inbounds nuw %struct.pbase_tree, ptr %49, i32 0, i32 0
  %51 = load ptr, ptr %50, align 8, !tbaa !181
  store ptr %51, ptr %3, align 8, !tbaa !179
  br label %21, !llvm.loop !224

52:                                               ; preds = %21
  store i32 0, ptr %6, align 4
  br label %53

53:                                               ; preds = %52, %16
  call void @llvm.lifetime.end.p0(i64 4, ptr %5) #11
  call void @llvm.lifetime.end.p0(i64 8, ptr %4) #11
  call void @llvm.lifetime.end.p0(i64 8, ptr %3) #11
  %54 = load i32, ptr %6, align 4
  switch i32 %54, label %56 [
    i32 0, label %55
    i32 1, label %55
  ]

55:                                               ; preds = %53, %53
  ret void

56:                                               ; preds = %53
  unreachable
}