; Function Attrs: nounwind uwtable
define internal fastcc void @add_preferred_base_object(ptr noundef %0) unnamed_addr #0 {
  %2 = alloca %struct.tree_desc, align 8
  %.not.i = icmp eq ptr %0, null
  br i1 %.not.i, label %pack_name_hash.exit, label %.outer.i

.outer.i:                                         ; preds = %1, %11
  %.07.ph.i = phi ptr [ %6, %11 ], [ %0, %1 ]
  %.0.ph.i = phi i32 [ %15, %11 ], [ 0, %1 ]
  br label %3

3:                                                ; preds = %5, %.outer.i
  %.07.i = phi ptr [ %6, %5 ], [ %.07.ph.i, %.outer.i ]
  %4 = load i8, ptr %.07.i, align 1, !tbaa !29
  %.not10.i = icmp eq i8 %4, 0
  br i1 %.not10.i, label %pack_name_hash.exit, label %5

5:                                                ; preds = %3
  %6 = getelementptr inbounds nuw i8, ptr %.07.i, i64 1
  %7 = zext i8 %4 to i64
  %8 = getelementptr inbounds nuw [256 x i8], ptr @sane_ctype, i64 0, i64 %7
  %9 = load i8, ptr %8, align 1, !tbaa !29
  %10 = and i8 %9, 1
  %.not11.i = icmp eq i8 %10, 0
  br i1 %.not11.i, label %11, label %3, !llvm.loop !287

11:                                               ; preds = %5
  %12 = sext i8 %4 to i32
  %13 = lshr i32 %.0.ph.i, 2
  %14 = shl nsw i32 %12, 24
  %15 = add i32 %14, %13
  br label %.outer.i, !llvm.loop !287

pack_name_hash.exit:                              ; preds = %3, %1
  %.06.i = phi i32 [ 0, %1 ], [ %.0.ph.i, %3 ]
  %16 = load i32, ptr @num_preferred_base, align 4, !tbaa !30
  %.not = icmp eq i32 %16, 0
  br i1 %.not, label %check_pbase_path.exit, label %17

17:                                               ; preds = %pack_name_hash.exit
  %18 = load i32, ptr @done_pbase_paths_num, align 4, !tbaa !30
  %19 = load ptr, ptr @done_pbase_paths, align 8
  br label %20

20:                                               ; preds = %22, %17
  %.019.i.i = phi i32 [ 0, %17 ], [ %.221.i.i, %22 ]
  %.016.i.i = phi i32 [ %18, %17 ], [ %.218.i.i, %22 ]
  %21 = icmp slt i32 %.019.i.i, %.016.i.i
  br i1 %21, label %22, label %31

22:                                               ; preds = %20
  %23 = sub nsw i32 %.016.i.i, %.019.i.i
  %24 = sdiv i32 %23, 2
  %25 = add nsw i32 %24, %.019.i.i
  %26 = sext i32 %25 to i64
  %27 = getelementptr inbounds i32, ptr %19, i64 %26
  %28 = load i32, ptr %27, align 4, !tbaa !30
  %.not.i.i = icmp eq i32 %28, %.06.i
  %29 = icmp ult i32 %28, %.06.i
  %30 = add nsw i32 %25, 1
  %.221.i.i = select i1 %29, i32 %.019.i.i, i32 %30
  %.218.i.i = select i1 %29, i32 %25, i32 %.016.i.i
  br i1 %.not.i.i, label %done_pbase_path_pos.exit.i, label %20, !llvm.loop !288

31:                                               ; preds = %20
  %32 = xor i32 %.019.i.i, -1
  br label %done_pbase_path_pos.exit.i

done_pbase_path_pos.exit.i:                       ; preds = %22, %31
  %.2.i.i = phi i32 [ %32, %31 ], [ %25, %22 ]
  %33 = icmp sgt i32 %.2.i.i, -1
  br i1 %33, label %check_pbase_path.exit, label %34

34:                                               ; preds = %done_pbase_path_pos.exit.i
  %35 = xor i32 %.2.i.i, -1
  %36 = load i32, ptr @done_pbase_paths_alloc, align 4, !tbaa !30
  %.not.i15 = icmp slt i32 %18, %36
  br i1 %.not.i15, label %46, label %37

37:                                               ; preds = %34
  %38 = add nsw i32 %18, 1
  %39 = mul i32 %36, 3
  %40 = add i32 %39, 48
  %41 = sdiv i32 %40, 2
  %.not16.i = icmp sgt i32 %41, %18
  %..i = select i1 %.not16.i, i32 %41, i32 %38
  store i32 %..i, ptr @done_pbase_paths_alloc, align 4, !tbaa !30
  %42 = sext i32 %..i to i64
  %mul.ov.i.i = icmp slt i32 %..i, 0
  br i1 %mul.ov.i.i, label %43, label %st_mult.exit.i

43:                                               ; preds = %37
  tail call void (ptr, ...) @die(ptr noundef nonnull @.str.148, i64 noundef 4, i64 noundef %42) #26
  unreachable

st_mult.exit.i:                                   ; preds = %37
  %44 = shl nuw nsw i64 %42, 2
  %45 = tail call ptr @xrealloc(ptr noundef %19, i64 noundef %44) #25
  store ptr %45, ptr @done_pbase_paths, align 8, !tbaa !157
  %.pre.i = load i32, ptr @done_pbase_paths_num, align 4, !tbaa !30
  br label %46

46:                                               ; preds = %st_mult.exit.i, %34
  %47 = phi ptr [ %45, %st_mult.exit.i ], [ %19, %34 ]
  %48 = phi i32 [ %.pre.i, %st_mult.exit.i ], [ %18, %34 ]
  %49 = add nsw i32 %48, 1
  store i32 %49, ptr @done_pbase_paths_num, align 4, !tbaa !30
  %.not17.i = icmp slt i32 %48, %35
  %.pre21.i = zext nneg i32 %35 to i64
  br i1 %.not17.i, label %58, label %50

50:                                               ; preds = %46
  %51 = getelementptr inbounds nuw i32, ptr %47, i64 %.pre21.i
  %52 = getelementptr inbounds nuw i8, ptr %51, i64 4
  %53 = add nsw i32 %49, %.2.i.i
  %54 = sext i32 %53 to i64
  %.not.i18.i = icmp eq i32 %53, 0
  br i1 %.not.i18.i, label %58, label %55

55:                                               ; preds = %50
  %mul.ov.i.i.i = icmp slt i32 %53, 0
  br i1 %mul.ov.i.i.i, label %56, label %st_mult.exit.i.i

56:                                               ; preds = %55
  tail call void (ptr, ...) @die(ptr noundef nonnull @.str.148, i64 noundef 4, i64 noundef %54) #26
  unreachable

st_mult.exit.i.i:                                 ; preds = %55
  %57 = shl nuw nsw i64 %54, 2
  tail call void @llvm.memmove.p0.p0.i64(ptr nonnull align 1 %52, ptr readonly align 1 %51, i64 %57, i1 false)
  br label %58

58:                                               ; preds = %46, %50, %st_mult.exit.i.i
  %59 = getelementptr inbounds nuw i32, ptr %47, i64 %.pre21.i
  store i32 %.06.i, ptr %59, align 4, !tbaa !30
  %60 = tail call i64 @strcspn(ptr noundef readonly %0, ptr noundef nonnull @.str.149) #28
  %.022 = load ptr, ptr @pbase_tree, align 8, !tbaa !146
  %.not1423 = icmp eq ptr %.022, null
  br i1 %.not1423, label %check_pbase_path.exit, label %.lr.ph

.lr.ph:                                           ; preds = %58
  %61 = icmp eq i64 %60, 0
  br i1 %61, label %.lr.ph.split.us, label %.lr.ph.split

.lr.ph.split.us:                                  ; preds = %.lr.ph, %.lr.ph.split.us
  %.024.us = phi ptr [ %.0.us, %.lr.ph.split.us ], [ %.022, %.lr.ph ]
  %62 = getelementptr inbounds nuw i8, ptr %.024.us, i64 8
  tail call fastcc void @add_object_entry(ptr noundef nonnull %62, i32 noundef 2, ptr noundef null, i32 noundef 1)
  %.0.us = load ptr, ptr %.024.us, align 8, !tbaa !146
  %.not14.us = icmp eq ptr %.0.us, null
  br i1 %.not14.us, label %check_pbase_path.exit, label %.lr.ph.split.us, !llvm.loop !289

.lr.ph.split:                                     ; preds = %.lr.ph, %.lr.ph.split
  %.024 = phi ptr [ %.0, %.lr.ph.split ], [ %.022, %.lr.ph ]
  call void @llvm.lifetime.start.p0(i64 80, ptr nonnull %2) #25
  %63 = getelementptr inbounds nuw i8, ptr %.024, i64 8
  %64 = getelementptr inbounds nuw i8, ptr %.024, i64 56
  %65 = load ptr, ptr %64, align 8, !tbaa !151
  %66 = getelementptr inbounds nuw i8, ptr %.024, i64 64
  %67 = load i64, ptr %66, align 8, !tbaa !290
  call void @init_tree_desc(ptr noundef nonnull %2, ptr noundef nonnull %63, ptr noundef %65, i64 noundef %67) #25
  call fastcc void @add_pbase_object(ptr noundef %2, ptr noundef %0, i64 noundef %60, ptr noundef %0)
  call void @llvm.lifetime.end.p0(i64 80, ptr nonnull %2) #25
  %.0 = load ptr, ptr %.024, align 8, !tbaa !146
  %.not14 = icmp eq ptr %.0, null
  br i1 %.not14, label %check_pbase_path.exit, label %.lr.ph.split, !llvm.loop !289

check_pbase_path.exit:                            ; preds = %.lr.ph.split, %.lr.ph.split.us, %58, %done_pbase_path_pos.exit.i, %pack_name_hash.exit
  ret void
}